target datalayout = "e-m:e-p270:32:32-p271:32:32-p272:64:64-i64:64-i128:128-f80:128-n8:16:32:64-S128"
target triple = "x86_64-pc-linux-gnu"

%struct.AVChannelLayout = type { i32, i32, %union.anon.1, ptr }
%union.anon.1 = type { i64 }
%struct.AVCodecContext = type { ptr, i32, i32, ptr, i32, i32, ptr, ptr, ptr, i64, i32, i32, ptr, i32, %struct.AVRational, %struct.AVRational, %struct.AVRational, i32, i32, i32, i32, i32, %struct.AVRational, i32, i32, i32, i32, i32, i32, i32, i32, i32, i32, i32, ptr, ptr, i32, float, float, float, float, float, float, float, float, float, i32, i32, i32, i32, i32, i32, i32, i32, i32, i32, i32, i32, ptr, ptr, ptr, i32, i32, i32, i32, i32, i32, i32, i32, i32, i32, %struct.AVChannelLayout, i32, i32, i32, i32, i32, i32, i32, i32, ptr, i32, i32, i32, float, float, i32, i32, i32, i32, i32, ptr, i64, i64, float, float, i32, i32, ptr, ptr, i32, i32, i32, i32, i32, ptr, ptr, ptr, ptr, i32, i32, [8 x i64], i32, i32, i32, i32, i32, i32, i32, ptr, ptr, i32, i32, i32, i32, i32, i32, i32, i32, i32, i32, ptr, ptr, i32, i32, ptr, ptr, ptr, ptr, i32, i32, i64, i32, i32, i64, ptr, i64, ptr, i32, ptr, i32 }
%struct.AVRational = type { i32, i32 }
%struct.FlacEncodeContext = type { ptr, %struct.PutBitContext, i32, i32, [2 x i32], i32, i32, i32, i32, i32, i32, i64, [16 x i8], %struct.FlacFrame, %struct.CompressionOptions, ptr, [8 x i8], %struct.LPCContext, ptr, ptr, i32, %struct.BswapDSPContext, %struct.FLACEncDSPContext, i32, i64, [8 x i8] }
%struct.PutBitContext = type { i32, i32, ptr, ptr, ptr }
%struct.FlacFrame = type { [8 x %struct.FlacSubframe], [65535 x i64], i32, [2 x i32], i8, i32, i32 }
%struct.FlacSubframe = type { i32, i32, i32, i32, i32, [32 x i32], i32, %struct.RiceContext, [65535 x i32], [32 x [256 x i64]], [65535 x i32], [65546 x i32] }
%struct.RiceContext = type { i32, i32, [256 x i32] }
%struct.CompressionOptions = type { i32, i32, i32, i32, i32, i32, i32, i32, i32, i32, i32, i32, i32 }
%struct.LPCContext = type { i32, i32, i32, ptr, ptr, ptr, ptr, [2 x %struct.LLSModel] }
%struct.LLSModel = type { [36 x [36 x double]], [32 x [32 x double]], [32 x double], i32, ptr, ptr, [8 x i8] }
%struct.BswapDSPContext = type { ptr, ptr }
%struct.FLACEncDSPContext = type { ptr, ptr }

@.str.57 = private unnamed_addr constant [30 x i8] c"Assertion %s failed at %s:%d\0A\00", align 1
@.str.60 = private unnamed_addr constant [43 x i8] c"Internal error, put_bits buffer too small\0A\00", align 1
@.str.61 = private unnamed_addr constant [24 x i8] c"s->buf_ptr < s->buf_end\00", align 1
@.str.62 = private unnamed_addr constant [22 x i8] c"libavcodec/put_bits.h\00", align 1

; Function Attrs: alwaysinline nounwind willreturn memory(none) uwtable
define internal i32 @av_bswap32(i32 noundef %0) #8 {
  %2 = alloca i32, align 4
  store i32 %0, ptr %2, align 4, !tbaa !29
  %3 = load i32, ptr %2, align 4, !tbaa !29
  %4 = shl i32 %3, 8
  %5 = and i32 %4, 65280
  %6 = load i32, ptr %2, align 4, !tbaa !29
  %7 = lshr i32 %6, 8
  %8 = and i32 %7, 255
  %9 = or i32 %5, %8
  %10 = shl i32 %9, 16
  %11 = load i32, ptr %2, align 4, !tbaa !29
  %12 = lshr i32 %11, 16
  %13 = shl i32 %12, 8
  %14 = and i32 %13, 65280
  %15 = load i32, ptr %2, align 4, !tbaa !29
  %16 = lshr i32 %15, 16
  %17 = lshr i32 %16, 8
  %18 = and i32 %17, 255
  %19 = or i32 %14, %18
  %20 = or i32 %10, %19
  ret i32 %20
}

; Function Attrs: inlinehint nounwind uwtable
define internal void @put_bits_no_assert(ptr noundef %0, i32 noundef %1, i32 noundef %2) #7 {
  %4 = alloca ptr, align 8
  %5 = alloca i32, align 4
  %6 = alloca i32, align 4
  %7 = alloca i32, align 4
  %8 = alloca i32, align 4
  store ptr %0, ptr %4, align 8, !tbaa !107
  store i32 %1, ptr %5, align 4, !tbaa !29
  store i32 %2, ptr %6, align 4, !tbaa !29
  call void @llvm.lifetime.start.p0(i64 4, ptr %7) #12
  call void @llvm.lifetime.start.p0(i64 4, ptr %8) #12
  %9 = load ptr, ptr %4, align 8, !tbaa !107
  %10 = getelementptr inbounds nuw %struct.PutBitContext, ptr %9, i32 0, i32 0
  %11 = load i32, ptr %10, align 8, !tbaa !113
  store i32 %11, ptr %7, align 4, !tbaa !29
  %12 = load ptr, ptr %4, align 8, !tbaa !107
  %13 = getelementptr inbounds nuw %struct.PutBitContext, ptr %12, i32 0, i32 1
  %14 = load i32, ptr %13, align 4, !tbaa !112
  store i32 %14, ptr %8, align 4, !tbaa !29
  %15 = load i32, ptr %5, align 4, !tbaa !29
  %16 = load i32, ptr %8, align 4, !tbaa !29
  %17 = icmp slt i32 %15, %16
  br i1 %17, label %18, label %27

18:                                               ; preds = %3
  %19 = load i32, ptr %7, align 4, !tbaa !29
  %20 = load i32, ptr %5, align 4, !tbaa !29
  %21 = shl i32 %19, %20
  %22 = load i32, ptr %6, align 4, !tbaa !29
  %23 = or i32 %21, %22
  store i32 %23, ptr %7, align 4, !tbaa !29
  %24 = load i32, ptr %5, align 4, !tbaa !29
  %25 = load i32, ptr %8, align 4, !tbaa !29
  %26 = sub nsw i32 %25, %24
  store i32 %26, ptr %8, align 4, !tbaa !29
  br label %65

27:                                               ; preds = %3
  %28 = load i32, ptr %8, align 4, !tbaa !29
  %29 = load i32, ptr %7, align 4, !tbaa !29
  %30 = shl i32 %29, %28
  store i32 %30, ptr %7, align 4, !tbaa !29
  %31 = load i32, ptr %6, align 4, !tbaa !29
  %32 = load i32, ptr %5, align 4, !tbaa !29
  %33 = load i32, ptr %8, align 4, !tbaa !29
  %34 = sub nsw i32 %32, %33
  %35 = lshr i32 %31, %34
  %36 = load i32, ptr %7, align 4, !tbaa !29
  %37 = or i32 %36, %35
  store i32 %37, ptr %7, align 4, !tbaa !29
  %38 = load ptr, ptr %4, align 8, !tbaa !107
  %39 = getelementptr inbounds nuw %struct.PutBitContext, ptr %38, i32 0, i32 4
  %40 = load ptr, ptr %39, align 8, !tbaa !110
  %41 = load ptr, ptr %4, align 8, !tbaa !107
  %42 = getelementptr inbounds nuw %struct.PutBitContext, ptr %41, i32 0, i32 3
  %43 = load ptr, ptr %42, align 8, !tbaa !111
  %44 = ptrtoint ptr %40 to i64
  %45 = ptrtoint ptr %43 to i64
  %46 = sub i64 %44, %45
  %47 = icmp uge i64 %46, 4
  br i1 %47, label %48, label %58

48:                                               ; preds = %27
  %49 = load i32, ptr %7, align 4, !tbaa !29
  %50 = call i32 @av_bswap32(i32 noundef %49) #15
  %51 = load ptr, ptr %4, align 8, !tbaa !107
  %52 = getelementptr inbounds nuw %struct.PutBitContext, ptr %51, i32 0, i32 3
  %53 = load ptr, ptr %52, align 8, !tbaa !111
  store i32 %50, ptr %53, align 1, !tbaa !55
  %54 = load ptr, ptr %4, align 8, !tbaa !107
  %55 = getelementptr inbounds nuw %struct.PutBitContext, ptr %54, i32 0, i32 3
  %56 = load ptr, ptr %55, align 8, !tbaa !111
  %57 = getelementptr inbounds nuw i8, ptr %56, i64 4
  store ptr %57, ptr %55, align 8, !tbaa !111
  br label %59

58:                                               ; preds = %27
  call void (ptr, i32, ptr, ...) @av_log(ptr noundef null, i32 noundef 16, ptr noundef @.str.60)
  br label %59

59:                                               ; preds = %58, %48
  %60 = load i32, ptr %5, align 4, !tbaa !29
  %61 = sub nsw i32 32, %60
  %62 = load i32, ptr %8, align 4, !tbaa !29
  %63 = add nsw i32 %62, %61
  store i32 %63, ptr %8, align 4, !tbaa !29
  %64 = load i32, ptr %6, align 4, !tbaa !29
  store i32 %64, ptr %7, align 4, !tbaa !29
  br label %65

65:                                               ; preds = %59, %18
  %66 = load i32, ptr %7, align 4, !tbaa !29
  %67 = load ptr, ptr %4, align 8, !tbaa !107
  %68 = getelementptr inbounds nuw %struct.PutBitContext, ptr %67, i32 0, i32 0
  store i32 %66, ptr %68, align 8, !tbaa !113
  %69 = load i32, ptr %8, align 4, !tbaa !29
  %70 = load ptr, ptr %4, align 8, !tbaa !107
  %71 = getelementptr inbounds nuw %struct.PutBitContext, ptr %70, i32 0, i32 1
  store i32 %69, ptr %71, align 4, !tbaa !112
  call void @llvm.lifetime.end.p0(i64 4, ptr %8) #12
  call void @llvm.lifetime.end.p0(i64 4, ptr %7) #12
  ret void
}

; Function Attrs: inlinehint nounwind uwtable
define internal void @flush_put_bits(ptr noundef %0) #7 {
  %2 = alloca ptr, align 8
  store ptr %0, ptr %2, align 8, !tbaa !107
  %3 = load ptr, ptr %2, align 8, !tbaa !107
  %4 = getelementptr inbounds nuw %struct.PutBitContext, ptr %3, i32 0, i32 1
  %5 = load i32, ptr %4, align 4, !tbaa !112
  %6 = icmp slt i32 %5, 32
  br i1 %6, label %7, label %15

7:                                                ; preds = %1
  %8 = load ptr, ptr %2, align 8, !tbaa !107
  %9 = getelementptr inbounds nuw %struct.PutBitContext, ptr %8, i32 0, i32 1
  %10 = load i32, ptr %9, align 4, !tbaa !112
  %11 = load ptr, ptr %2, align 8, !tbaa !107
  %12 = getelementptr inbounds nuw %struct.PutBitContext, ptr %11, i32 0, i32 0
  %13 = load i32, ptr %12, align 8, !tbaa !113
  %14 = shl i32 %13, %10
  store i32 %14, ptr %12, align 8, !tbaa !113
  br label %15

15:                                               ; preds = %7, %1
  br label %16

16:                                               ; preds = %32, %15
  %17 = load ptr, ptr %2, align 8, !tbaa !107
  %18 = getelementptr inbounds nuw %struct.PutBitContext, ptr %17, i32 0, i32 1
  %19 = load i32, ptr %18, align 4, !tbaa !112
  %20 = icmp slt i32 %19, 32
  br i1 %20, label %21, label %50

21:                                               ; preds = %16
  br label %22

22:                                               ; preds = %21
  %23 = load ptr, ptr %2, align 8, !tbaa !107
  %24 = getelementptr inbounds nuw %struct.PutBitContext, ptr %23, i32 0, i32 3
  %25 = load ptr, ptr %24, align 8, !tbaa !111
  %26 = load ptr, ptr %2, align 8, !tbaa !107
  %27 = getelementptr inbounds nuw %struct.PutBitContext, ptr %26, i32 0, i32 4
  %28 = load ptr, ptr %27, align 8, !tbaa !110
  %29 = icmp ult ptr %25, %28
  br i1 %29, label %31, label %30

30:                                               ; preds = %22
  call void (ptr, i32, ptr, ...) @av_log(ptr noundef null, i32 noundef 0, ptr noundef @.str.57, ptr noundef @.str.61, ptr noundef @.str.62, i32 noundef 150)
  call void @abort() #14
  unreachable

31:                                               ; preds = %22
  br label %32

32:                                               ; preds = %31
  %33 = load ptr, ptr %2, align 8, !tbaa !107
  %34 = getelementptr inbounds nuw %struct.PutBitContext, ptr %33, i32 0, i32 0
  %35 = load i32, ptr %34, align 8, !tbaa !113
  %36 = lshr i32 %35, 24
  %37 = trunc i32 %36 to i8
  %38 = load ptr, ptr %2, align 8, !tbaa !107
  %39 = getelementptr inbounds nuw %struct.PutBitContext, ptr %38, i32 0, i32 3
  %40 = load ptr, ptr %39, align 8, !tbaa !111
  %41 = getelementptr inbounds nuw i8, ptr %40, i32 1
  store ptr %41, ptr %39, align 8, !tbaa !111
  store i8 %37, ptr %40, align 1, !tbaa !55
  %42 = load ptr, ptr %2, align 8, !tbaa !107
  %43 = getelementptr inbounds nuw %struct.PutBitContext, ptr %42, i32 0, i32 0
  %44 = load i32, ptr %43, align 8, !tbaa !113
  %45 = shl i32 %44, 8
  store i32 %45, ptr %43, align 8, !tbaa !113
  %46 = load ptr, ptr %2, align 8, !tbaa !107
  %47 = getelementptr inbounds nuw %struct.PutBitContext, ptr %46, i32 0, i32 1
  %48 = load i32, ptr %47, align 4, !tbaa !112
  %49 = add nsw i32 %48, 8
  store i32 %49, ptr %47, align 4, !tbaa !112
  br label %16, !llvm.loop !114

50:                                               ; preds = %16
  %51 = load ptr, ptr %2, align 8, !tbaa !107
  %52 = getelementptr inbounds nuw %struct.PutBitContext, ptr %51, i32 0, i32 1
  store i32 32, ptr %52, align 4, !tbaa !112
  %53 = load ptr, ptr %2, align 8, !tbaa !107
  %54 = getelementptr inbounds nuw %struct.PutBitContext, ptr %53, i32 0, i32 0
  store i32 0, ptr %54, align 8, !tbaa !113
  ret void
}

; Function Attrs: inlinehint nounwind uwtable
define internal void @put_bits(ptr noundef %0, i32 noundef %1, i32 noundef %2) #7 {
  %4 = alloca ptr, align 8
  %5 = alloca i32, align 4
  %6 = alloca i32, align 4
  store ptr %0, ptr %4, align 8, !tbaa !107
  store i32 %1, ptr %5, align 4, !tbaa !29
  store i32 %2, ptr %6, align 4, !tbaa !29
  %7 = load ptr, ptr %4, align 8, !tbaa !107
  %8 = load i32, ptr %5, align 4, !tbaa !29
  %9 = load i32, ptr %6, align 4, !tbaa !29
  call void @put_bits_no_assert(ptr noundef %7, i32 noundef %8, i32 noundef %9)
  ret void
}

; Function Attrs: inlinehint nounwind uwtable
define internal void @init_put_bits(ptr noundef %0, ptr noundef %1, i32 noundef %2) #7 {
  %4 = alloca ptr, align 8
  %5 = alloca ptr, align 8
  %6 = alloca i32, align 4
  store ptr %0, ptr %4, align 8, !tbaa !107
  store ptr %1, ptr %5, align 8, !tbaa !67
  store i32 %2, ptr %6, align 4, !tbaa !29
  %7 = load i32, ptr %6, align 4, !tbaa !29
  %8 = icmp slt i32 %7, 0
  br i1 %8, label %9, label %10

9:                                                ; preds = %3
  store i32 0, ptr %6, align 4, !tbaa !29
  store ptr null, ptr %5, align 8, !tbaa !67
  br label %10

10:                                               ; preds = %9, %3
  %11 = load ptr, ptr %5, align 8, !tbaa !67
  %12 = load ptr, ptr %4, align 8, !tbaa !107
  %13 = getelementptr inbounds nuw %struct.PutBitContext, ptr %12, i32 0, i32 2
  store ptr %11, ptr %13, align 8, !tbaa !109
  %14 = load ptr, ptr %4, align 8, !tbaa !107
  %15 = getelementptr inbounds nuw %struct.PutBitContext, ptr %14, i32 0, i32 2
  %16 = load ptr, ptr %15, align 8, !tbaa !109
  %17 = load i32, ptr %6, align 4, !tbaa !29
  %18 = sext i32 %17 to i64
  %19 = getelementptr inbounds i8, ptr %16, i64 %18
  %20 = load ptr, ptr %4, align 8, !tbaa !107
  %21 = getelementptr inbounds nuw %struct.PutBitContext, ptr %20, i32 0, i32 4
  store ptr %19, ptr %21, align 8, !tbaa !110
  %22 = load ptr, ptr %4, align 8, !tbaa !107
  %23 = getelementptr inbounds nuw %struct.PutBitContext, ptr %22, i32 0, i32 2
  %24 = load ptr, ptr %23, align 8, !tbaa !109
  %25 = load ptr, ptr %4, align 8, !tbaa !107
  %26 = getelementptr inbounds nuw %struct.PutBitContext, ptr %25, i32 0, i32 3
  store ptr %24, ptr %26, align 8, !tbaa !111
  %27 = load ptr, ptr %4, align 8, !tbaa !107
  %28 = getelementptr inbounds nuw %struct.PutBitContext, ptr %27, i32 0, i32 1
  store i32 32, ptr %28, align 4, !tbaa !112
  %29 = load ptr, ptr %4, align 8, !tbaa !107
  %30 = getelementptr inbounds nuw %struct.PutBitContext, ptr %29, i32 0, i32 0
  store i32 0, ptr %30, align 8, !tbaa !113
  ret void
}

; Function Attrs: nounwind uwtable
define internal void @write_streaminfo(ptr noundef %0, ptr noundef %1) #1 {
  %3 = alloca ptr, align 8
  %4 = alloca ptr, align 8
  %5 = alloca %struct.PutBitContext, align 8
  store ptr %0, ptr %3, align 8, !tbaa !32
  store ptr %1, ptr %4, align 8, !tbaa !67
  call void @llvm.lifetime.start.p0(i64 32, ptr %5) #12
  %6 = load ptr, ptr %4, align 8, !tbaa !67
  call void @llvm.memset.p0.i64(ptr align 1 %6, i8 0, i64 34, i1 false)
  %7 = load ptr, ptr %4, align 8, !tbaa !67
  call void @init_put_bits(ptr noundef %5, ptr noundef %7, i32 noundef 34)
  %8 = load ptr, ptr %3, align 8, !tbaa !32
  %9 = getelementptr inbounds nuw %struct.FlacEncodeContext, ptr %8, i32 0, i32 6
  %10 = load i32, ptr %9, align 4, !tbaa !64
  call void @put_bits(ptr noundef %5, i32 noundef 16, i32 noundef %10)
  %11 = load ptr, ptr %3, align 8, !tbaa !32
  %12 = getelementptr inbounds nuw %struct.FlacEncodeContext, ptr %11, i32 0, i32 6
  %13 = load i32, ptr %12, align 4, !tbaa !64
  call void @put_bits(ptr noundef %5, i32 noundef 16, i32 noundef %13)
  %14 = load ptr, ptr %3, align 8, !tbaa !32
  %15 = getelementptr inbounds nuw %struct.FlacEncodeContext, ptr %14, i32 0, i32 7
  %16 = load i32, ptr %15, align 16, !tbaa !71
  call void @put_bits(ptr noundef %5, i32 noundef 24, i32 noundef %16)
  %17 = load ptr, ptr %3, align 8, !tbaa !32
  %18 = getelementptr inbounds nuw %struct.FlacEncodeContext, ptr %17, i32 0, i32 8
  %19 = load i32, ptr %18, align 4, !tbaa !65
  call void @put_bits(ptr noundef %5, i32 noundef 24, i32 noundef %19)
  %20 = load ptr, ptr %3, align 8, !tbaa !32
  %21 = getelementptr inbounds nuw %struct.FlacEncodeContext, ptr %20, i32 0, i32 3
  %22 = load i32, ptr %21, align 4, !tbaa !49
  call void @put_bits(ptr noundef %5, i32 noundef 20, i32 noundef %22)
  %23 = load ptr, ptr %3, align 8, !tbaa !32
  %24 = getelementptr inbounds nuw %struct.FlacEncodeContext, ptr %23, i32 0, i32 2
  %25 = load i32, ptr %24, align 8, !tbaa !48
  %26 = sub nsw i32 %25, 1
  call void @put_bits(ptr noundef %5, i32 noundef 3, i32 noundef %26)
  %27 = load ptr, ptr %3, align 8, !tbaa !32
  %28 = getelementptr inbounds nuw %struct.FlacEncodeContext, ptr %27, i32 0, i32 15
  %29 = load ptr, ptr %28, align 16, !tbaa !34
  %30 = getelementptr inbounds nuw %struct.AVCodecContext, ptr %29, i32 0, i32 115
  %31 = load i32, ptr %30, align 4, !tbaa !45
  %32 = sub nsw i32 %31, 1
  call void @put_bits(ptr noundef %5, i32 noundef 5, i32 noundef %32)
  %33 = load ptr, ptr %3, align 8, !tbaa !32
  %34 = getelementptr inbounds nuw %struct.FlacEncodeContext, ptr %33, i32 0, i32 11
  %35 = load i64, ptr %34, align 16, !tbaa !93
  %36 = and i64 %35, 68719472640
  %37 = lshr i64 %36, 12
  %38 = trunc i64 %37 to i32
  call void @put_bits(ptr noundef %5, i32 noundef 24, i32 noundef %38)
  %39 = load ptr, ptr %3, align 8, !tbaa !32
  %40 = getelementptr inbounds nuw %struct.FlacEncodeContext, ptr %39, i32 0, i32 11
  %41 = load i64, ptr %40, align 16, !tbaa !93
  %42 = and i64 %41, 4095
  %43 = trunc i64 %42 to i32
  call void @put_bits(ptr noundef %5, i32 noundef 12, i32 noundef %43)
  call void @flush_put_bits(ptr noundef %5)
  %44 = load ptr, ptr %4, align 8, !tbaa !67
  %45 = getelementptr inbounds i8, ptr %44, i64 18
  %46 = load ptr, ptr %3, align 8, !tbaa !32
  %47 = getelementptr inbounds nuw %struct.FlacEncodeContext, ptr %46, i32 0, i32 12
  %48 = getelementptr inbounds [16 x i8], ptr %47, i64 0, i64 0
  call void @llvm.memcpy.p0.p0.i64(ptr align 1 %45, ptr align 8 %48, i64 16, i1 false)
  call void @llvm.lifetime.end.p0(i64 32, ptr %5) #12
  ret void
}