; Function Attrs: nounwind uwtable
define internal fastcc void @write_streaminfo(ptr noundef readonly captures(none) %0, ptr noundef writeonly captures(none) initializes((0, 34)) %1) unnamed_addr #1 {
put_bits.exit44.thread:
  tail call void @llvm.memset.p0.i64(ptr noundef nonnull align 1 dereferenceable(34) %1, i8 0, i64 34, i1 false)
  %2 = getelementptr inbounds nuw i8, ptr %0, i64 60
  %3 = load i32, ptr %2, align 4, !tbaa !59
  %4 = shl i32 %3, 16
  %5 = or i32 %4, %3
  %6 = tail call i32 @llvm.bswap.i32(i32 %5)
  store i32 %6, ptr %1, align 1, !tbaa !68
  %7 = getelementptr inbounds nuw i8, ptr %0, i64 68
  %8 = load i32, ptr %7, align 4, !tbaa !60
  %9 = getelementptr inbounds nuw i8, ptr %1, i64 4
  %10 = getelementptr inbounds nuw i8, ptr %0, i64 64
  %11 = load i32, ptr %10, align 16, !tbaa !65
  %12 = shl i32 %11, 8
  %13 = lshr i32 %8, 16
  %14 = or i32 %13, %12
  %15 = tail call i32 @llvm.bswap.i32(i32 %14)
  store i32 %15, ptr %9, align 1, !tbaa !68
  %16 = getelementptr inbounds nuw i8, ptr %1, i64 8
  %17 = getelementptr inbounds nuw i8, ptr %0, i64 44
  %18 = load i32, ptr %17, align 4, !tbaa !46
  %19 = shl i32 %8, 16
  %20 = lshr i32 %18, 4
  %21 = or i32 %20, %19
  %22 = tail call i32 @llvm.bswap.i32(i32 %21)
  store i32 %22, ptr %16, align 1, !tbaa !68
  %23 = getelementptr inbounds nuw i8, ptr %1, i64 12
  %24 = getelementptr inbounds nuw i8, ptr %0, i64 80
  %25 = load i64, ptr %24, align 16, !tbaa !144
  %26 = lshr i64 %25, 12
  %27 = trunc i64 %26 to i32
  %28 = getelementptr inbounds nuw i8, ptr %0, i64 40
  %29 = load i32, ptr %28, align 8, !tbaa !44
  %30 = shl i32 %29, 5
  %31 = add i32 %30, 4064
  %32 = shl i32 %18, 8
  %33 = or i32 %31, %32
  %34 = getelementptr inbounds nuw i8, ptr %0, i64 7350000
  %35 = load ptr, ptr %34, align 16, !tbaa !29
  %36 = getelementptr inbounds nuw i8, ptr %35, i64 652
  %37 = load i32, ptr %36, align 4, !tbaa !41
  %38 = add i32 %37, 4095
  %39 = or i32 %33, %38
  %40 = shl i32 %39, 20
  %41 = lshr i32 %27, 4
  %42 = and i32 %41, 1048575
  %43 = or disjoint i32 %42, %40
  %44 = tail call i32 @llvm.bswap.i32(i32 %43)
  store i32 %44, ptr %23, align 1, !tbaa !68
  %45 = load i64, ptr %24, align 16, !tbaa !144
  %46 = trunc i64 %45 to i32
  %47 = shl i32 %27, 28
  %48 = shl i32 %46, 16
  %49 = and i32 %48, 268369920
  %50 = or disjoint i32 %49, %47
  br label %51

51:                                               ; preds = %54, %put_bits.exit44.thread
  %.sroa.51.18.idx = phi i64 [ 16, %put_bits.exit44.thread ], [ %.sroa.51.18.add, %54 ]
  %.sroa.27.0 = phi i32 [ 16, %put_bits.exit44.thread ], [ %58, %54 ]
  %.sroa.0.0 = phi i32 [ %50, %put_bits.exit44.thread ], [ %57, %54 ]
  %52 = icmp samesign ult i64 %.sroa.51.18.idx, 34
  br i1 %52, label %54, label %53

53:                                               ; preds = %51
  tail call void (ptr, i32, ptr, ...) @av_log(ptr noundef null, i32 noundef 0, ptr noundef nonnull @.str.57, ptr noundef nonnull @.str.61, ptr noundef nonnull @.str.62, i32 noundef 150) #11
  tail call void @abort() #13
  unreachable

54:                                               ; preds = %51
  %.sroa.51.18.ptr = getelementptr inbounds nuw i8, ptr %1, i64 %.sroa.51.18.idx
  %55 = lshr i32 %.sroa.0.0, 24
  %56 = trunc nuw i32 %55 to i8
  %.sroa.51.18.add = add nuw nsw i64 %.sroa.51.18.idx, 1
  store i8 %56, ptr %.sroa.51.18.ptr, align 1, !tbaa !68
  %57 = shl i32 %.sroa.0.0, 8
  %58 = add nuw nsw i32 %.sroa.27.0, 8
  %59 = icmp samesign ult i32 %.sroa.27.0, 24
  br i1 %59, label %51, label %flush_put_bits.exit, !llvm.loop !125

flush_put_bits.exit:                              ; preds = %54
  %60 = getelementptr inbounds nuw i8, ptr %1, i64 18
  %61 = getelementptr inbounds nuw i8, ptr %0, i64 88
  tail call void @llvm.memcpy.p0.p0.i64(ptr noundef nonnull align 1 dereferenceable(16) %60, ptr noundef nonnull align 8 dereferenceable(16) %61, i64 16, i1 false)
  ret void
}